target datalayout = "e-m:e-p270:32:32-p271:32:32-p272:64:64-i64:64-i128:128-f80:128-n8:16:32:64-S128"
target triple = "x86_64-pc-linux-gnu"

%struct._lv_canvas_t = type { %struct._lv_image_t, ptr, %struct._lv_draw_buf_t }
%struct._lv_image_t = type { %struct._lv_obj_t, ptr, ptr, %struct.lv_point_t, i32, i32, i32, i32, i32, %struct.lv_point_t, i16 }
%struct._lv_obj_t = type { ptr, ptr, ptr, ptr, ptr, %struct.lv_area_t, i32, i16, i16 }
%struct.lv_area_t = type { i32, i32, i32, i32 }
%struct.lv_point_t = type { i32, i32 }
%struct._lv_draw_buf_t = type { %struct.lv_image_header_t, i32, ptr, ptr, ptr }
%struct.lv_image_header_t = type <{ i64, i32 }>
%struct._lv_layer_t = type { ptr, %struct.lv_area_t, i32, %struct.lv_area_t, %struct.lv_area_t, ptr, ptr, ptr, i8, ptr }

; Function Attrs: inlinehint nounwind uwtable
define internal void @lv_memzero(ptr noundef %0, i64 noundef %1) #5 {
  %3 = alloca ptr, align 8
  %4 = alloca i64, align 8
  store ptr %0, ptr %3, align 8, !tbaa !3
  store i64 %1, ptr %4, align 8, !tbaa !33
  %5 = load ptr, ptr %3, align 8, !tbaa !3
  %6 = load i64, ptr %4, align 8, !tbaa !33
  call void @lv_memset(ptr noundef %5, i8 noundef zeroext 0, i64 noundef %6)
  ret void
}

; Function Attrs: nounwind uwtable
define void @lv_canvas_init_layer(ptr noundef %0, ptr noundef %1) #0 {
  %3 = alloca ptr, align 8
  %4 = alloca ptr, align 8
  %5 = alloca ptr, align 8
  %6 = alloca i32, align 4
  %7 = alloca ptr, align 8
  %8 = alloca %struct.lv_area_t, align 4
  store ptr %0, ptr %3, align 8, !tbaa !3
  store ptr %1, ptr %4, align 8, !tbaa !3
  br label %9

9:                                                ; preds = %2
  %10 = load ptr, ptr %3, align 8, !tbaa !3
  %11 = icmp ne ptr %10, null
  br i1 %11, label %16, label %12

12:                                               ; preds = %9
  br label %13

13:                                               ; preds = %12
  br label %14

14:                                               ; preds = %13
  br label %15

15:                                               ; preds = %14, %15
  br label %15

16:                                               ; preds = %9
  br label %17

17:                                               ; preds = %16
  br label %18

18:                                               ; preds = %17
  %19 = load ptr, ptr %4, align 8, !tbaa !3
  %20 = icmp ne ptr %19, null
  br i1 %20, label %25, label %21

21:                                               ; preds = %18
  br label %22

22:                                               ; preds = %21
  br label %23

23:                                               ; preds = %22
  br label %24

24:                                               ; preds = %23, %24
  br label %24

25:                                               ; preds = %18
  br label %26

26:                                               ; preds = %25
  call void @llvm.lifetime.start.p0(i64 8, ptr %5) #6
  %27 = load ptr, ptr %3, align 8, !tbaa !3
  store ptr %27, ptr %5, align 8, !tbaa !3
  %28 = load ptr, ptr %5, align 8, !tbaa !3
  %29 = getelementptr inbounds nuw %struct._lv_canvas_t, ptr %28, i32 0, i32 1
  %30 = load ptr, ptr %29, align 8, !tbaa !7
  %31 = icmp eq ptr %30, null
  br i1 %31, label %32, label %33

32:                                               ; preds = %26
  store i32 1, ptr %6, align 4
  br label %72

33:                                               ; preds = %26
  call void @llvm.lifetime.start.p0(i64 8, ptr %7) #6
  %34 = load ptr, ptr %5, align 8, !tbaa !3
  %35 = getelementptr inbounds nuw %struct._lv_canvas_t, ptr %34, i32 0, i32 1
  %36 = load ptr, ptr %35, align 8, !tbaa !7
  %37 = getelementptr inbounds nuw %struct._lv_draw_buf_t, ptr %36, i32 0, i32 0
  store ptr %37, ptr %7, align 8, !tbaa !3
  call void @llvm.lifetime.start.p0(i64 16, ptr %8) #6
  %38 = getelementptr inbounds nuw %struct.lv_area_t, ptr %8, i32 0, i32 0
  store i32 0, ptr %38, align 4, !tbaa !52
  %39 = getelementptr inbounds nuw %struct.lv_area_t, ptr %8, i32 0, i32 1
  store i32 0, ptr %39, align 4, !tbaa !53
  %40 = getelementptr inbounds nuw %struct.lv_area_t, ptr %8, i32 0, i32 2
  %41 = load ptr, ptr %7, align 8, !tbaa !3
  %42 = load i64, ptr %41, align 4
  %43 = lshr i64 %42, 32
  %44 = and i64 %43, 65535
  %45 = trunc i64 %44 to i32
  %46 = sub nsw i32 %45, 1
  store i32 %46, ptr %40, align 4, !tbaa !54
  %47 = getelementptr inbounds nuw %struct.lv_area_t, ptr %8, i32 0, i32 3
  %48 = load ptr, ptr %7, align 8, !tbaa !3
  %49 = load i64, ptr %48, align 4
  %50 = lshr i64 %49, 48
  %51 = trunc i64 %50 to i32
  %52 = sub nsw i32 %51, 1
  store i32 %52, ptr %47, align 4, !tbaa !55
  %53 = load ptr, ptr %4, align 8, !tbaa !3
  call void @lv_memzero(ptr noundef %53, i64 noundef 104)
  %54 = load ptr, ptr %5, align 8, !tbaa !3
  %55 = getelementptr inbounds nuw %struct._lv_canvas_t, ptr %54, i32 0, i32 1
  %56 = load ptr, ptr %55, align 8, !tbaa !7
  %57 = load ptr, ptr %4, align 8, !tbaa !3
  %58 = getelementptr inbounds nuw %struct._lv_layer_t, ptr %57, i32 0, i32 0
  store ptr %56, ptr %58, align 8, !tbaa !56
  %59 = load ptr, ptr %7, align 8, !tbaa !3
  %60 = load i64, ptr %59, align 4
  %61 = lshr i64 %60, 8
  %62 = and i64 %61, 255
  %63 = trunc i64 %62 to i32
  %64 = load ptr, ptr %4, align 8, !tbaa !3
  %65 = getelementptr inbounds nuw %struct._lv_layer_t, ptr %64, i32 0, i32 2
  store i32 %63, ptr %65, align 8, !tbaa !59
  %66 = load ptr, ptr %4, align 8, !tbaa !3
  %67 = getelementptr inbounds nuw %struct._lv_layer_t, ptr %66, i32 0, i32 1
  call void @llvm.memcpy.p0.p0.i64(ptr align 8 %67, ptr align 4 %8, i64 16, i1 false), !tbaa.struct !60
  %68 = load ptr, ptr %4, align 8, !tbaa !3
  %69 = getelementptr inbounds nuw %struct._lv_layer_t, ptr %68, i32 0, i32 3
  call void @llvm.memcpy.p0.p0.i64(ptr align 4 %69, ptr align 4 %8, i64 16, i1 false), !tbaa.struct !60
  %70 = load ptr, ptr %4, align 8, !tbaa !3
  %71 = getelementptr inbounds nuw %struct._lv_layer_t, ptr %70, i32 0, i32 4
  call void @llvm.memcpy.p0.p0.i64(ptr align 4 %71, ptr align 4 %8, i64 16, i1 false), !tbaa.struct !60
  call void @llvm.lifetime.end.p0(i64 16, ptr %8) #6
  call void @llvm.lifetime.end.p0(i64 8, ptr %7) #6
  store i32 0, ptr %6, align 4
  br label %72

72:                                               ; preds = %33, %32
  call void @llvm.lifetime.end.p0(i64 8, ptr %5) #6
  %73 = load i32, ptr %6, align 4
  switch i32 %73, label %75 [
    i32 0, label %74
    i32 1, label %74
  ]

74:                                               ; preds = %72, %72
  ret void

75:                                               ; preds = %72
  unreachable
}