; Function Attrs: nounwind uwtable
define void @lv_canvas_init_layer(ptr noundef readonly %0, ptr noundef %1) local_unnamed_addr #1 {
  %.not = icmp eq ptr %0, null
  br i1 %.not, label %.preheader, label %3

.preheader:                                       ; preds = %2, %.preheader
  br label %.preheader

3:                                                ; preds = %2
  %.not31 = icmp eq ptr %1, null
  br i1 %.not31, label %.preheader32, label %4

.preheader32:                                     ; preds = %3, %.preheader32
  br label %.preheader32

4:                                                ; preds = %3
  %5 = getelementptr inbounds nuw i8, ptr %0, i64 120
  %6 = load ptr, ptr %5, align 8, !tbaa !3
  %7 = icmp eq ptr %6, null
  br i1 %7, label %26, label %8

8:                                                ; preds = %4
  %9 = load i64, ptr %6, align 4
  %10 = lshr i64 %9, 32
  %11 = trunc nuw i64 %10 to i32
  %12 = and i32 %11, 65535
  %13 = add nsw i32 %12, -1
  %14 = lshr i64 %9, 48
  %15 = trunc nuw nsw i64 %14 to i32
  %16 = add nsw i32 %15, -1
  tail call void @lv_memset(ptr noundef nonnull %1, i8 noundef zeroext 0, i64 noundef 104) #5
  %17 = load ptr, ptr %5, align 8, !tbaa !3
  store ptr %17, ptr %1, align 8, !tbaa !42
  %18 = load i64, ptr %6, align 4
  %19 = trunc i64 %18 to i32
  %20 = lshr i32 %19, 8
  %21 = and i32 %20, 255
  %22 = getelementptr inbounds nuw i8, ptr %1, i64 24
  store i32 %21, ptr %22, align 8, !tbaa !45
  %23 = getelementptr inbounds nuw i8, ptr %1, i64 8
  store i32 0, ptr %23, align 8, !tbaa !31
  %.sroa.6.0..sroa_idx = getelementptr inbounds i8, ptr %1, i64 12
  store i32 0, ptr %.sroa.6.0..sroa_idx, align 4, !tbaa !31
  %.sroa.7.0..sroa_idx = getelementptr inbounds i8, ptr %1, i64 16
  store i32 %13, ptr %.sroa.7.0..sroa_idx, align 8, !tbaa !31
  %.sroa.8.0..sroa_idx = getelementptr inbounds i8, ptr %1, i64 20
  store i32 %16, ptr %.sroa.8.0..sroa_idx, align 4, !tbaa !31
  %24 = getelementptr inbounds nuw i8, ptr %1, i64 28
  store i32 0, ptr %24, align 4, !tbaa !31
  %.sroa.6.0..sroa_idx3 = getelementptr inbounds i8, ptr %1, i64 32
  store i32 0, ptr %.sroa.6.0..sroa_idx3, align 4, !tbaa !31
  %.sroa.7.0..sroa_idx7 = getelementptr inbounds i8, ptr %1, i64 36
  store i32 %13, ptr %.sroa.7.0..sroa_idx7, align 4, !tbaa !31
  %.sroa.8.0..sroa_idx11 = getelementptr inbounds i8, ptr %1, i64 40
  store i32 %16, ptr %.sroa.8.0..sroa_idx11, align 4, !tbaa !31
  %25 = getelementptr inbounds nuw i8, ptr %1, i64 44
  store i32 0, ptr %25, align 4, !tbaa !31
  %.sroa.6.0..sroa_idx5 = getelementptr inbounds i8, ptr %1, i64 48
  store i32 0, ptr %.sroa.6.0..sroa_idx5, align 4, !tbaa !31
  %.sroa.7.0..sroa_idx9 = getelementptr inbounds i8, ptr %1, i64 52
  store i32 %13, ptr %.sroa.7.0..sroa_idx9, align 4, !tbaa !31
  %.sroa.8.0..sroa_idx13 = getelementptr inbounds i8, ptr %1, i64 56
  store i32 %16, ptr %.sroa.8.0..sroa_idx13, align 4, !tbaa !31
  br label %26

26:                                               ; preds = %4, %8
  ret void
}